; Function Attrs: nounwind uwtable
define dso_local noundef i32 @core_yylex_destroy(ptr noundef %0) local_unnamed_addr #0 {
  %2 = getelementptr inbounds nuw i8, ptr %0, i64 40
  %3 = load ptr, ptr %2, align 8
  %.not32 = icmp eq ptr %3, null
  br i1 %.not32, label %core_yyfree.exit, label %.lr.ph

.lr.ph:                                           ; preds = %1
  %4 = getelementptr inbounds nuw i8, ptr %0, i64 24
  %5 = getelementptr inbounds nuw i8, ptr %0, i64 52
  %6 = getelementptr inbounds nuw i8, ptr %0, i64 64
  %7 = getelementptr inbounds nuw i8, ptr %0, i64 128
  %8 = getelementptr inbounds nuw i8, ptr %0, i64 8
  %9 = getelementptr inbounds nuw i8, ptr %0, i64 48
  %10 = getelementptr inbounds nuw i8, ptr %0, i64 80
  %11 = load i64, ptr %4, align 8
  %12 = getelementptr inbounds nuw ptr, ptr %3, i64 %11
  %13 = load ptr, ptr %12, align 8
  %14 = icmp eq ptr %13, null
  br i1 %14, label %.critedge, label %.thread.i

.thread.i:                                        ; preds = %.lr.ph, %core_yypop_buffer_state.exit
  %15 = phi ptr [ %61, %core_yypop_buffer_state.exit ], [ %13, %.lr.ph ]
  %16 = phi ptr [ %60, %core_yypop_buffer_state.exit ], [ %12, %.lr.ph ]
  store ptr null, ptr %16, align 8
  %17 = getelementptr inbounds nuw i8, ptr %15, i64 32
  %18 = load i32, ptr %17, align 8
  %.not15.i = icmp eq i32 %18, 0
  br i1 %.not15.i, label %core_yy_delete_buffer.exit, label %19

19:                                               ; preds = %.thread.i
  %20 = getelementptr inbounds nuw i8, ptr %15, i64 8
  %21 = load ptr, ptr %20, align 8
  %.not.i.i = icmp eq ptr %21, null
  br i1 %.not.i.i, label %core_yy_delete_buffer.exit, label %22

22:                                               ; preds = %19
  tail call void @pfree(ptr noundef nonnull %21) #22
  br label %core_yy_delete_buffer.exit

core_yy_delete_buffer.exit:                       ; preds = %.thread.i, %19, %22
  tail call void @pfree(ptr noundef nonnull %15) #22
  %23 = load ptr, ptr %2, align 8
  %24 = load i64, ptr %4, align 8
  %25 = getelementptr inbounds nuw ptr, ptr %23, i64 %24
  store ptr null, ptr %25, align 8
  %26 = load ptr, ptr %2, align 8
  %.not.i23 = icmp eq ptr %26, null
  br i1 %.not.i23, label %core_yyfree.exit, label %27

27:                                               ; preds = %core_yy_delete_buffer.exit
  %28 = load i64, ptr %4, align 8
  %29 = getelementptr inbounds nuw ptr, ptr %26, i64 %28
  %30 = load ptr, ptr %29, align 8
  %.not20.i = icmp eq ptr %30, null
  br i1 %.not20.i, label %core_yypop_buffer_state.exit, label %.thread.i.i

.thread.i.i:                                      ; preds = %27
  store ptr null, ptr %29, align 8
  %31 = getelementptr inbounds nuw i8, ptr %30, i64 32
  %32 = load i32, ptr %31, align 8
  %.not15.i.i = icmp eq i32 %32, 0
  br i1 %.not15.i.i, label %core_yy_delete_buffer.exit.i, label %33

33:                                               ; preds = %.thread.i.i
  %34 = getelementptr inbounds nuw i8, ptr %30, i64 8
  %35 = load ptr, ptr %34, align 8
  %.not.i.i.i = icmp eq ptr %35, null
  br i1 %.not.i.i.i, label %core_yy_delete_buffer.exit.i, label %36

36:                                               ; preds = %33
  tail call void @pfree(ptr noundef nonnull %35) #22
  br label %core_yy_delete_buffer.exit.i

core_yy_delete_buffer.exit.i:                     ; preds = %36, %33, %.thread.i.i
  tail call void @pfree(ptr noundef nonnull %30) #22
  %37 = load ptr, ptr %2, align 8
  %38 = load i64, ptr %4, align 8
  %39 = getelementptr inbounds nuw ptr, ptr %37, i64 %38
  store ptr null, ptr %39, align 8
  %40 = load i64, ptr %4, align 8
  %.not21.i = icmp eq i64 %40, 0
  br i1 %.not21.i, label %43, label %41

41:                                               ; preds = %core_yy_delete_buffer.exit.i
  %42 = add i64 %40, -1
  store i64 %42, ptr %4, align 8
  br label %43

43:                                               ; preds = %41, %core_yy_delete_buffer.exit.i
  %44 = phi i64 [ %42, %41 ], [ 0, %core_yy_delete_buffer.exit.i ]
  %45 = load ptr, ptr %2, align 8
  %.not22.i = icmp eq ptr %45, null
  br i1 %.not22.i, label %core_yyfree.exit, label %46

46:                                               ; preds = %43
  %47 = getelementptr inbounds nuw ptr, ptr %45, i64 %44
  %48 = load ptr, ptr %47, align 8
  %.not23.i = icmp eq ptr %48, null
  br i1 %.not23.i, label %core_yypop_buffer_state.exit, label %49

49:                                               ; preds = %46
  %50 = getelementptr inbounds nuw i8, ptr %48, i64 28
  %51 = load i32, ptr %50, align 4
  store i32 %51, ptr %5, align 4
  %52 = load ptr, ptr %47, align 8
  %53 = getelementptr inbounds nuw i8, ptr %52, i64 16
  %54 = load ptr, ptr %53, align 8
  store ptr %54, ptr %6, align 8
  store ptr %54, ptr %7, align 8
  %55 = load ptr, ptr %47, align 8
  %56 = load ptr, ptr %55, align 8
  store ptr %56, ptr %8, align 8
  %57 = load i8, ptr %54, align 1
  store i8 %57, ptr %9, align 8
  store i32 1, ptr %10, align 8
  br label %core_yypop_buffer_state.exit

core_yypop_buffer_state.exit:                     ; preds = %27, %46, %49
  %58 = phi ptr [ %26, %27 ], [ %45, %46 ], [ %45, %49 ]
  %59 = load i64, ptr %4, align 8
  %60 = getelementptr inbounds nuw ptr, ptr %58, i64 %59
  %61 = load ptr, ptr %60, align 8
  %62 = icmp eq ptr %61, null
  br i1 %62, label %.critedge, label %.thread.i, !llvm.loop !15

.critedge:                                        ; preds = %core_yypop_buffer_state.exit, %.lr.ph
  %.lcssa = phi ptr [ %3, %.lr.ph ], [ %58, %core_yypop_buffer_state.exit ]
  tail call void @pfree(ptr noundef nonnull %.lcssa) #22
  br label %core_yyfree.exit

core_yyfree.exit:                                 ; preds = %43, %core_yy_delete_buffer.exit, %1, %.critedge
  store ptr null, ptr %2, align 8
  %63 = getelementptr inbounds nuw i8, ptr %0, i64 96
  %64 = load ptr, ptr %63, align 8
  %.not.i25 = icmp eq ptr %64, null
  br i1 %.not.i25, label %core_yyfree.exit28, label %65

65:                                               ; preds = %core_yyfree.exit
  tail call void @pfree(ptr noundef nonnull %64) #22
  br label %core_yyfree.exit28

core_yyfree.exit28:                               ; preds = %core_yyfree.exit, %65
  %66 = getelementptr inbounds nuw i8, ptr %0, i64 64
  %67 = getelementptr inbounds nuw i8, ptr %0, i64 84
  store i32 0, ptr %67, align 4
  %68 = getelementptr inbounds nuw i8, ptr %0, i64 88
  store i32 0, ptr %68, align 8
  store ptr null, ptr %63, align 8
  %69 = getelementptr inbounds nuw i8, ptr %0, i64 8
  tail call void @llvm.memset.p0.i64(ptr noundef nonnull align 8 dereferenceable(40) %69, i8 0, i64 40, i1 false)
  tail call void @llvm.memset.p0.i64(ptr noundef nonnull align 8 dereferenceable(16) %66, i8 0, i64 16, i1 false)
  tail call void @pfree(ptr noundef nonnull %0) #22
  ret i32 0
}